; Function Attrs: nounwind sspstrong uwtable
define internal noundef i32 @ivshmem_post_load(ptr noundef %opaque, i32 %version_id) #0 {
entry:
  %0 = getelementptr i8, ptr %opaque, i64 2608
  %opaque.val = load i32, ptr %0, align 16
  %and.i = and i32 %opaque.val, 2
  %tobool.not = icmp eq i32 %and.i, 0
  br i1 %tobool.not, label %if.end, label %if.then

if.then:                                          ; preds = %entry
  %call.i.i = tail call ptr @object_dynamic_cast_assert(ptr noundef nonnull %opaque, ptr noundef nonnull @.str.1, ptr noundef nonnull @.str.6, i32 noundef 10, ptr noundef nonnull @__func__.PCI_DEVICE) #11
  %vectors.i = getelementptr inbounds nuw i8, ptr %opaque, i64 3276
  %1 = load i32, ptr %vectors.i, align 4
  %cmp4.not.i = icmp eq i32 %1, 0
  br i1 %cmp4.not.i, label %if.end, label %for.body.i

for.body.i:                                       ; preds = %if.then, %for.body.i
  %i.05.i = phi i32 [ %inc.i, %for.body.i ], [ 0, %if.then ]
  tail call void @msix_vector_use(ptr noundef %call.i.i, i32 noundef %i.05.i) #11
  %inc.i = add nuw i32 %i.05.i, 1
  %2 = load i32, ptr %vectors.i, align 4
  %cmp.i = icmp ult i32 %inc.i, %2
  br i1 %cmp.i, label %for.body.i, label %if.end, !llvm.loop !9

if.end:                                           ; preds = %for.body.i, %if.then, %entry
  ret i32 0
}